; ModuleID = '42/1576.c'
source_filename = "42/1576.c"
target datalayout = "e-m:e-p270:32:32-p271:32:32-p272:64:64-i64:64-f80:128-n8:16:32:64-S128"
target triple = "x86_64-pc-linux-gnu"

@.str = private unnamed_addr constant [3 x i8] c"%d\00", align 1
@.str.1 = private unnamed_addr constant [4 x i8] c"%d \00", align 1
@.str.2 = private unnamed_addr constant [4 x i8] c"%d\0A\00", align 1

; Function Attrs: noinline nounwind uwtable
define dso_local i32 @main() #0 {
  %1 = alloca i32, align 4
  %2 = alloca i32, align 4
  %3 = alloca i32, align 4
  %4 = alloca [100000 x i32], align 16
  %5 = alloca [100000 x i32], align 16
  %6 = alloca i32, align 4
  %7 = alloca i32, align 4
  %8 = alloca i32, align 4
  store i32 0, i32* %1, align 4
  %9 = call i32 (i8*, ...) @__isoc99_scanf(i8* getelementptr inbounds ([3 x i8], [3 x i8]* @.str, i64 0, i64 0), i32* %2)
  store i32 0, i32* %6, align 4
  br label %10

10:                                               ; preds = %19, %0
  %11 = load i32, i32* %6, align 4
  %12 = load i32, i32* %2, align 4
  %13 = icmp slt i32 %11, %12
  br i1 %13, label %14, label %22

14:                                               ; preds = %10
  %15 = load i32, i32* %6, align 4
  %16 = sext i32 %15 to i64
  %17 = getelementptr inbounds [100000 x i32], [100000 x i32]* %4, i64 0, i64 %16
  %18 = call i32 (i8*, ...) @__isoc99_scanf(i8* getelementptr inbounds ([3 x i8], [3 x i8]* @.str, i64 0, i64 0), i32* %17)
  br label %19

19:                                               ; preds = %14
  %20 = load i32, i32* %6, align 4
  %21 = add nsw i32 %20, 1
  store i32 %21, i32* %6, align 4
  br label %10

22:                                               ; preds = %10
  %23 = call i32 (i8*, ...) @__isoc99_scanf(i8* getelementptr inbounds ([3 x i8], [3 x i8]* @.str, i64 0, i64 0), i32* %3)
  store i32 0, i32* %8, align 4
  store i32 0, i32* %6, align 4
  br label %24

24:                                               ; preds = %57, %22
  %25 = load i32, i32* %6, align 4
  %26 = load i32, i32* %2, align 4
  %27 = icmp slt i32 %25, %26
  br i1 %27, label %28, label %60

28:                                               ; preds = %24
  %29 = load i32, i32* %6, align 4
  %30 = sext i32 %29 to i64
  %31 = getelementptr inbounds [100000 x i32], [100000 x i32]* %4, i64 0, i64 %30
  %32 = load i32, i32* %31, align 4
  %33 = load i32, i32* %3, align 4
  %34 = icmp eq i32 %32, %33
  br i1 %34, label %35, label %38

35:                                               ; preds = %28
  %36 = load i32, i32* %8, align 4
  %37 = add nsw i32 %36, 1
  store i32 %37, i32* %8, align 4
  br label %38

38:                                               ; preds = %35, %28
  %39 = load i32, i32* %6, align 4
  %40 = sext i32 %39 to i64
  %41 = getelementptr inbounds [100000 x i32], [100000 x i32]* %4, i64 0, i64 %40
  %42 = load i32, i32* %41, align 4
  %43 = load i32, i32* %3, align 4
  %44 = icmp ne i32 %42, %43
  br i1 %44, label %45, label %56

45:                                               ; preds = %38
  %46 = load i32, i32* %6, align 4
  %47 = load i32, i32* %8, align 4
  %48 = sub nsw i32 %46, %47
  store i32 %48, i32* %7, align 4
  %49 = load i32, i32* %6, align 4
  %50 = sext i32 %49 to i64
  %51 = getelementptr inbounds [100000 x i32], [100000 x i32]* %4, i64 0, i64 %50
  %52 = load i32, i32* %51, align 4
  %53 = load i32, i32* %7, align 4
  %54 = sext i32 %53 to i64
  %55 = getelementptr inbounds [100000 x i32], [100000 x i32]* %5, i64 0, i64 %54
  store i32 %52, i32* %55, align 4
  br label %56

56:                                               ; preds = %45, %38
  br label %57

57:                                               ; preds = %56
  %58 = load i32, i32* %6, align 4
  %59 = add nsw i32 %58, 1
  store i32 %59, i32* %6, align 4
  br label %24

60:                                               ; preds = %24
  store i32 0, i32* %7, align 4
  br label %61

61:                                               ; preds = %74, %60
  %62 = load i32, i32* %7, align 4
  %63 = load i32, i32* %2, align 4
  %64 = load i32, i32* %8, align 4
  %65 = sub nsw i32 %63, %64
  %66 = sub nsw i32 %65, 1
  %67 = icmp slt i32 %62, %66
  br i1 %67, label %68, label %77

68:                                               ; preds = %61
  %69 = load i32, i32* %7, align 4
  %70 = sext i32 %69 to i64
  %71 = getelementptr inbounds [100000 x i32], [100000 x i32]* %5, i64 0, i64 %70
  %72 = load i32, i32* %71, align 4
  %73 = call i32 (i8*, ...) @printf(i8* getelementptr inbounds ([4 x i8], [4 x i8]* @.str.1, i64 0, i64 0), i32 %72)
  br label %74

74:                                               ; preds = %68
  %75 = load i32, i32* %7, align 4
  %76 = add nsw i32 %75, 1
  store i32 %76, i32* %7, align 4
  br label %61

77:                                               ; preds = %61
  %78 = load i32, i32* %7, align 4
  %79 = load i32, i32* %2, align 4
  %80 = load i32, i32* %8, align 4
  %81 = sub nsw i32 %79, %80
  %82 = sub nsw i32 %81, 1
  %83 = icmp eq i32 %78, %82
  br i1 %83, label %84, label %90

84:                                               ; preds = %77
  %85 = load i32, i32* %7, align 4
  %86 = sext i32 %85 to i64
  %87 = getelementptr inbounds [100000 x i32], [100000 x i32]* %5, i64 0, i64 %86
  %88 = load i32, i32* %87, align 4
  %89 = call i32 (i8*, ...) @printf(i8* getelementptr inbounds ([4 x i8], [4 x i8]* @.str.2, i64 0, i64 0), i32 %88)
  br label %90

90:                                               ; preds = %84, %77
  ret i32 0
}

declare dso_local i32 @__isoc99_scanf(i8*, ...) #1

declare dso_local i32 @printf(i8*, ...) #1


!llvm.module.flags = !{!0}
!llvm.ident = !{!1}

!0 = !{i32 1, !"wchar_size", i32 4}
!1 = !{!"clang version 10.0.0-4ubuntu1 "}
